target datalayout = "e-m:e-p270:32:32-p271:32:32-p272:64:64-i64:64-i128:128-f80:128-n8:16:32:64-S128"
target triple = "x86_64-pc-linux-gnu"

; Function Attrs: inlinehint nounwind uwtable
define internal i32 @is_xplatform_dir_sep(i32 noundef %0) #2 {
  %2 = alloca i32, align 4
  store i32 %0, ptr %2, align 4, !tbaa !4
  %3 = load i32, ptr %2, align 4, !tbaa !4
  %4 = icmp eq i32 %3, 47
  br i1 %4, label %8, label %5

5:                                                ; preds = %1
  %6 = load i32, ptr %2, align 4, !tbaa !4
  %7 = icmp eq i32 %6, 92
  br label %8

8:                                                ; preds = %5, %1
  %9 = phi i1 [ true, %1 ], [ %7, %5 ]
  %10 = zext i1 %9 to i32
  ret i32 %10
}

; Function Attrs: nounwind uwtable
define dso_local i32 @is_ntfs_dotgit(ptr noundef %0) #0 {
  %2 = alloca i32, align 4
  %3 = alloca ptr, align 8
  %4 = alloca i8, align 1
  %5 = alloca i32, align 4
  store ptr %0, ptr %3, align 8, !tbaa !43
  call void @llvm.lifetime.start.p0(i64 1, ptr %4) #12
  %6 = load ptr, ptr %3, align 8, !tbaa !43
  %7 = getelementptr inbounds nuw i8, ptr %6, i32 1
  store ptr %7, ptr %3, align 8, !tbaa !43
  %8 = load i8, ptr %6, align 1, !tbaa !18
  store i8 %8, ptr %4, align 1, !tbaa !18
  %9 = load i8, ptr %4, align 1, !tbaa !18
  %10 = sext i8 %9 to i32
  %11 = icmp eq i32 %10, 46
  br i1 %11, label %12, label %44

12:                                               ; preds = %1
  %13 = load ptr, ptr %3, align 8, !tbaa !43
  %14 = getelementptr inbounds nuw i8, ptr %13, i32 1
  store ptr %14, ptr %3, align 8, !tbaa !43
  %15 = load i8, ptr %13, align 1, !tbaa !18
  store i8 %15, ptr %4, align 1, !tbaa !18
  %16 = sext i8 %15 to i32
  %17 = icmp ne i32 %16, 103
  br i1 %17, label %18, label %22

18:                                               ; preds = %12
  %19 = load i8, ptr %4, align 1, !tbaa !18
  %20 = sext i8 %19 to i32
  %21 = icmp ne i32 %20, 71
  br i1 %21, label %42, label %22

22:                                               ; preds = %18, %12
  %23 = load ptr, ptr %3, align 8, !tbaa !43
  %24 = getelementptr inbounds nuw i8, ptr %23, i32 1
  store ptr %24, ptr %3, align 8, !tbaa !43
  %25 = load i8, ptr %23, align 1, !tbaa !18
  store i8 %25, ptr %4, align 1, !tbaa !18
  %26 = sext i8 %25 to i32
  %27 = icmp ne i32 %26, 105
  br i1 %27, label %28, label %32

28:                                               ; preds = %22
  %29 = load i8, ptr %4, align 1, !tbaa !18
  %30 = sext i8 %29 to i32
  %31 = icmp ne i32 %30, 73
  br i1 %31, label %42, label %32

32:                                               ; preds = %28, %22
  %33 = load ptr, ptr %3, align 8, !tbaa !43
  %34 = getelementptr inbounds nuw i8, ptr %33, i32 1
  store ptr %34, ptr %3, align 8, !tbaa !43
  %35 = load i8, ptr %33, align 1, !tbaa !18
  store i8 %35, ptr %4, align 1, !tbaa !18
  %36 = sext i8 %35 to i32
  %37 = icmp ne i32 %36, 116
  br i1 %37, label %38, label %43

38:                                               ; preds = %32
  %39 = load i8, ptr %4, align 1, !tbaa !18
  %40 = sext i8 %39 to i32
  %41 = icmp ne i32 %40, 84
  br i1 %41, label %42, label %43

42:                                               ; preds = %38, %28, %18
  store i32 0, ptr %2, align 4
  store i32 1, ptr %5, align 4
  br label %115

43:                                               ; preds = %38, %32
  br label %88

44:                                               ; preds = %1
  %45 = load i8, ptr %4, align 1, !tbaa !18
  %46 = sext i8 %45 to i32
  %47 = icmp eq i32 %46, 103
  br i1 %47, label %52, label %48

48:                                               ; preds = %44
  %49 = load i8, ptr %4, align 1, !tbaa !18
  %50 = sext i8 %49 to i32
  %51 = icmp eq i32 %50, 71
  br i1 %51, label %52, label %86

52:                                               ; preds = %48, %44
  %53 = load ptr, ptr %3, align 8, !tbaa !43
  %54 = getelementptr inbounds nuw i8, ptr %53, i32 1
  store ptr %54, ptr %3, align 8, !tbaa !43
  %55 = load i8, ptr %53, align 1, !tbaa !18
  store i8 %55, ptr %4, align 1, !tbaa !18
  %56 = sext i8 %55 to i32
  %57 = icmp ne i32 %56, 105
  br i1 %57, label %58, label %62

58:                                               ; preds = %52
  %59 = load i8, ptr %4, align 1, !tbaa !18
  %60 = sext i8 %59 to i32
  %61 = icmp ne i32 %60, 73
  br i1 %61, label %84, label %62

62:                                               ; preds = %58, %52
  %63 = load ptr, ptr %3, align 8, !tbaa !43
  %64 = getelementptr inbounds nuw i8, ptr %63, i32 1
  store ptr %64, ptr %3, align 8, !tbaa !43
  %65 = load i8, ptr %63, align 1, !tbaa !18
  store i8 %65, ptr %4, align 1, !tbaa !18
  %66 = sext i8 %65 to i32
  %67 = icmp ne i32 %66, 116
  br i1 %67, label %68, label %72

68:                                               ; preds = %62
  %69 = load i8, ptr %4, align 1, !tbaa !18
  %70 = sext i8 %69 to i32
  %71 = icmp ne i32 %70, 84
  br i1 %71, label %84, label %72

72:                                               ; preds = %68, %62
  %73 = load ptr, ptr %3, align 8, !tbaa !43
  %74 = getelementptr inbounds nuw i8, ptr %73, i32 1
  store ptr %74, ptr %3, align 8, !tbaa !43
  %75 = load i8, ptr %73, align 1, !tbaa !18
  %76 = sext i8 %75 to i32
  %77 = icmp ne i32 %76, 126
  br i1 %77, label %84, label %78

78:                                               ; preds = %72
  %79 = load ptr, ptr %3, align 8, !tbaa !43
  %80 = getelementptr inbounds nuw i8, ptr %79, i32 1
  store ptr %80, ptr %3, align 8, !tbaa !43
  %81 = load i8, ptr %79, align 1, !tbaa !18
  %82 = sext i8 %81 to i32
  %83 = icmp ne i32 %82, 49
  br i1 %83, label %84, label %85

84:                                               ; preds = %78, %72, %68, %58
  store i32 0, ptr %2, align 4
  store i32 1, ptr %5, align 4
  br label %115

85:                                               ; preds = %78
  br label %87

86:                                               ; preds = %48
  store i32 0, ptr %2, align 4
  store i32 1, ptr %5, align 4
  br label %115

87:                                               ; preds = %85
  br label %88

88:                                               ; preds = %87, %43
  br label %89

89:                                               ; preds = %114, %88
  %90 = load ptr, ptr %3, align 8, !tbaa !43
  %91 = getelementptr inbounds nuw i8, ptr %90, i32 1
  store ptr %91, ptr %3, align 8, !tbaa !43
  %92 = load i8, ptr %90, align 1, !tbaa !18
  store i8 %92, ptr %4, align 1, !tbaa !18
  %93 = load i8, ptr %4, align 1, !tbaa !18
  %94 = icmp ne i8 %93, 0
  br i1 %94, label %95, label %104

95:                                               ; preds = %89
  %96 = load i8, ptr %4, align 1, !tbaa !18
  %97 = sext i8 %96 to i32
  %98 = call i32 @is_xplatform_dir_sep(i32 noundef %97)
  %99 = icmp ne i32 %98, 0
  br i1 %99, label %104, label %100

100:                                              ; preds = %95
  %101 = load i8, ptr %4, align 1, !tbaa !18
  %102 = sext i8 %101 to i32
  %103 = icmp eq i32 %102, 58
  br i1 %103, label %104, label %105

104:                                              ; preds = %100, %95, %89
  store i32 1, ptr %2, align 4
  store i32 1, ptr %5, align 4
  br label %115

105:                                              ; preds = %100
  %106 = load i8, ptr %4, align 1, !tbaa !18
  %107 = sext i8 %106 to i32
  %108 = icmp ne i32 %107, 46
  br i1 %108, label %109, label %114

109:                                              ; preds = %105
  %110 = load i8, ptr %4, align 1, !tbaa !18
  %111 = sext i8 %110 to i32
  %112 = icmp ne i32 %111, 32
  br i1 %112, label %113, label %114

113:                                              ; preds = %109
  store i32 0, ptr %2, align 4
  store i32 1, ptr %5, align 4
  br label %115

114:                                              ; preds = %109, %105
  br label %89

115:                                              ; preds = %113, %104, %86, %84, %42
  call void @llvm.lifetime.end.p0(i64 1, ptr %4) #12
  %116 = load i32, ptr %2, align 4
  ret i32 %116
}