; Function Attrs: nofree norecurse nosync nounwind memory(argmem: read) uwtable
define dso_local range(i32 0, 2) i32 @is_ntfs_dotgit(ptr noundef readonly captures(none) %0) local_unnamed_addr #19 {
  %2 = getelementptr inbounds nuw i8, ptr %0, i64 1
  %3 = load i8, ptr %0, align 1, !tbaa !14
  %4 = icmp eq i8 %3, 46
  br i1 %4, label %5, label %17

5:                                                ; preds = %1
  %6 = load i8, ptr %2, align 1, !tbaa !14
  %7 = and i8 %6, -33
  %or.cond.not = icmp eq i8 %7, 71
  br i1 %or.cond.not, label %8, label %.fold.split

8:                                                ; preds = %5
  %9 = getelementptr inbounds nuw i8, ptr %0, i64 2
  %10 = load i8, ptr %9, align 1, !tbaa !14
  %11 = and i8 %10, -33
  %or.cond5.not = icmp eq i8 %11, 73
  br i1 %or.cond5.not, label %12, label %.fold.split

12:                                               ; preds = %8
  %13 = getelementptr inbounds nuw i8, ptr %0, i64 3
  %14 = getelementptr inbounds nuw i8, ptr %0, i64 4
  %15 = load i8, ptr %13, align 1, !tbaa !14
  %16 = and i8 %15, -33
  %or.cond8.not = icmp eq i8 %16, 84
  br i1 %or.cond8.not, label %.preheader, label %.fold.split

17:                                               ; preds = %1
  %18 = and i8 %3, -33
  %or.cond11 = icmp eq i8 %18, 71
  br i1 %or.cond11, label %19, label %.fold.split

19:                                               ; preds = %17
  %20 = load i8, ptr %2, align 1, !tbaa !14
  %21 = and i8 %20, -33
  %or.cond14.not = icmp eq i8 %21, 73
  br i1 %or.cond14.not, label %22, label %.fold.split

22:                                               ; preds = %19
  %23 = getelementptr inbounds nuw i8, ptr %0, i64 2
  %24 = load i8, ptr %23, align 1, !tbaa !14
  %25 = and i8 %24, -33
  %or.cond17.not = icmp eq i8 %25, 84
  br i1 %or.cond17.not, label %26, label %.fold.split

26:                                               ; preds = %22
  %27 = getelementptr inbounds nuw i8, ptr %0, i64 3
  %28 = load i8, ptr %27, align 1, !tbaa !14
  %.not = icmp eq i8 %28, 126
  br i1 %.not, label %29, label %.fold.split

29:                                               ; preds = %26
  %30 = getelementptr inbounds nuw i8, ptr %0, i64 4
  %31 = getelementptr inbounds nuw i8, ptr %0, i64 5
  %32 = load i8, ptr %30, align 1, !tbaa !14
  %.not49 = icmp eq i8 %32, 49
  br i1 %.not49, label %.preheader, label %.fold.split

.preheader:                                       ; preds = %29, %12
  %.1.ph = phi ptr [ %31, %29 ], [ %14, %12 ]
  br label %33

33:                                               ; preds = %.preheader, %.backedge
  %.1 = phi ptr [ %35, %.backedge ], [ %.1.ph, %.preheader ]
  %34 = load i8, ptr %.1, align 1, !tbaa !14
  %.fr = freeze i8 %34
  switch i8 %.fr, label %.fold.split [
    i8 0, label %.fold.split.loopexit52
    i8 58, label %.fold.split.loopexit52
    i8 92, label %.fold.split.loopexit52
    i8 47, label %.fold.split.loopexit52
    i8 46, label %.backedge
    i8 32, label %.backedge
  ]

.backedge:                                        ; preds = %33, %33
  %35 = getelementptr inbounds nuw i8, ptr %.1, i64 1
  br label %33

.fold.split.loopexit52:                           ; preds = %33, %33, %33, %33
  br label %.fold.split

.fold.split:                                      ; preds = %33, %.fold.split.loopexit52, %17, %26, %29, %19, %22, %5, %8, %12
  %.045 = phi i32 [ 0, %12 ], [ 0, %8 ], [ 0, %5 ], [ 0, %22 ], [ 0, %19 ], [ 0, %29 ], [ 0, %26 ], [ 0, %17 ], [ 1, %.fold.split.loopexit52 ], [ 0, %33 ]
  ret i32 %.045
}